target datalayout = "e-m:e-p270:32:32-p271:32:32-p272:64:64-i64:64-i128:128-f80:128-n8:16:32:64-S128"
target triple = "x86_64-unknown-linux-gnu"

%"class.Imf_3_2::FrameBuffer" = type { %"class.std::map.0" }
%"class.std::map.0" = type { %"class.std::_Rb_tree.1" }
%"class.std::_Rb_tree.1" = type { %"struct.std::_Rb_tree<Imf_3_2::Name, std::pair<const Imf_3_2::Name, Imf_3_2::Slice>, std::_Select1st<std::pair<const Imf_3_2::Name, Imf_3_2::Slice>>, std::less<Imf_3_2::Name>>::_Rb_tree_impl" }
%"struct.std::_Rb_tree<Imf_3_2::Name, std::pair<const Imf_3_2::Name, Imf_3_2::Slice>, std::_Select1st<std::pair<const Imf_3_2::Name, Imf_3_2::Slice>>, std::less<Imf_3_2::Name>>::_Rb_tree_impl" = type { %"struct.std::_Rb_tree_key_compare", %"struct.std::_Rb_tree_header" }
%"struct.std::_Rb_tree_key_compare" = type { %"struct.std::less" }
%"struct.std::less" = type { i8 }
%"struct.std::_Rb_tree_header" = type { %"struct.std::_Rb_tree_node_base", i64 }
%"struct.std::_Rb_tree_node_base" = type { i32, ptr, ptr, ptr }
%"class.std::__cxx11::basic_string" = type { %"struct.std::__cxx11::basic_string<char>::_Alloc_hider", i64, %union.anon }
%"struct.std::__cxx11::basic_string<char>::_Alloc_hider" = type { ptr }
%union.anon = type { i64, [8 x i8] }
%"class.Imf_3_2::RgbaInputFile" = type { ptr, ptr, ptr, ptr, %"class.std::__cxx11::basic_string" }

@_ZN7Imf_3_213RgbaInputFile7FromYcaC1ERNS_9InputPartENS_12RgbaChannelsE = hidden unnamed_addr alias void (ptr, ptr, i32), ptr @_ZN7Imf_3_213RgbaInputFile7FromYcaC2ERNS_9InputPartENS_12RgbaChannelsE
@_ZN7Imf_3_213RgbaInputFile7FromYcaD1Ev = hidden unnamed_addr alias void (ptr), ptr @_ZN7Imf_3_213RgbaInputFile7FromYcaD2Ev

; Function Attrs: mustprogress nounwind uwtable
define linkonce_odr hidden void @_ZNSt15_Rb_tree_header8_M_resetEv(ptr noundef nonnull align 8 dereferenceable(40) %this) #5 comdat align 2 {
entry:
  %this.addr = alloca ptr, align 8
  store ptr %this, ptr %this.addr, align 8
  %this1 = load ptr, ptr %this.addr, align 8
  %_M_header = getelementptr inbounds %"struct.std::_Rb_tree_header", ptr %this1, i32 0, i32 0
  %_M_parent = getelementptr inbounds %"struct.std::_Rb_tree_node_base", ptr %_M_header, i32 0, i32 1
  store ptr null, ptr %_M_parent, align 8
  %_M_header2 = getelementptr inbounds %"struct.std::_Rb_tree_header", ptr %this1, i32 0, i32 0
  %_M_header3 = getelementptr inbounds %"struct.std::_Rb_tree_header", ptr %this1, i32 0, i32 0
  %_M_left = getelementptr inbounds %"struct.std::_Rb_tree_node_base", ptr %_M_header3, i32 0, i32 2
  store ptr %_M_header2, ptr %_M_left, align 8
  %_M_header4 = getelementptr inbounds %"struct.std::_Rb_tree_header", ptr %this1, i32 0, i32 0
  %_M_header5 = getelementptr inbounds %"struct.std::_Rb_tree_header", ptr %this1, i32 0, i32 0
  %_M_right = getelementptr inbounds %"struct.std::_Rb_tree_node_base", ptr %_M_header5, i32 0, i32 3
  store ptr %_M_header4, ptr %_M_right, align 8
  %_M_node_count = getelementptr inbounds %"struct.std::_Rb_tree_header", ptr %this1, i32 0, i32 1
  store i64 0, ptr %_M_node_count, align 8
  ret void
}

; Function Attrs: mustprogress nounwind uwtable
define linkonce_odr hidden void @_ZNSt15__new_allocatorISt13_Rb_tree_nodeISt4pairIKN7Imf_3_24NameENS2_5SliceEEEEC2Ev(ptr noundef nonnull align 1 dereferenceable(1) %this) unnamed_addr #5 comdat align 2 {
entry:
  %this.addr = alloca ptr, align 8
  store ptr %this, ptr %this.addr, align 8
  ret void
}

; Function Attrs: mustprogress nounwind uwtable
define linkonce_odr hidden void @_ZNSt15_Rb_tree_headerC2Ev(ptr noundef nonnull align 8 dereferenceable(40) %this) unnamed_addr #5 comdat align 2 personality ptr @__gxx_personality_v0 {
entry:
  %this.addr = alloca ptr, align 8
  store ptr %this, ptr %this.addr, align 8
  %this1 = load ptr, ptr %this.addr, align 8
  %_M_header2 = getelementptr inbounds %"struct.std::_Rb_tree_header", ptr %this1, i32 0, i32 0
  %_M_color = getelementptr inbounds %"struct.std::_Rb_tree_node_base", ptr %_M_header2, i32 0, i32 0
  store i32 0, ptr %_M_color, align 8
  invoke void @_ZNSt15_Rb_tree_header8_M_resetEv(ptr noundef nonnull align 8 dereferenceable(40) %this1)
          to label %invoke.cont unwind label %terminate.lpad

invoke.cont:                                      ; preds = %entry
  ret void

terminate.lpad:                                   ; preds = %entry
  %0 = landingpad { ptr, i32 }
          catch ptr null
  %1 = extractvalue { ptr, i32 } %0, 0
  call void @__clang_call_terminate(ptr %1) #16
  unreachable
}

; Function Attrs: mustprogress nounwind uwtable
define linkonce_odr hidden void @_ZNSt20_Rb_tree_key_compareISt4lessIN7Imf_3_24NameEEEC2Ev(ptr noundef nonnull align 1 dereferenceable(1) %this) unnamed_addr #5 comdat align 2 {
entry:
  %this.addr = alloca ptr, align 8
  store ptr %this, ptr %this.addr, align 8
  ret void
}

; Function Attrs: mustprogress nounwind uwtable
define linkonce_odr hidden void @_ZNSaISt13_Rb_tree_nodeISt4pairIKN7Imf_3_24NameENS1_5SliceEEEEC2Ev(ptr noundef nonnull align 1 dereferenceable(1) %this) unnamed_addr #5 comdat align 2 {
entry:
  %this.addr = alloca ptr, align 8
  store ptr %this, ptr %this.addr, align 8
  %this1 = load ptr, ptr %this.addr, align 8
  call void @_ZNSt15__new_allocatorISt13_Rb_tree_nodeISt4pairIKN7Imf_3_24NameENS2_5SliceEEEEC2Ev(ptr noundef nonnull align 1 dereferenceable(1) %this1) #3
  ret void
}

; Function Attrs: mustprogress nounwind uwtable
define linkonce_odr hidden void @_ZNSt8_Rb_treeIN7Imf_3_24NameESt4pairIKS1_NS0_5SliceEESt10_Select1stIS5_ESt4lessIS1_ESaIS5_EE13_Rb_tree_implIS9_Lb1EEC2Ev(ptr noundef nonnull align 8 dereferenceable(48) %this) unnamed_addr #5 comdat align 2 {
entry:
  %this.addr = alloca ptr, align 8
  store ptr %this, ptr %this.addr, align 8
  %this1 = load ptr, ptr %this.addr, align 8
  call void @_ZNSaISt13_Rb_tree_nodeISt4pairIKN7Imf_3_24NameENS1_5SliceEEEEC2Ev(ptr noundef nonnull align 1 dereferenceable(1) %this1) #3
  call void @_ZNSt20_Rb_tree_key_compareISt4lessIN7Imf_3_24NameEEEC2Ev(ptr noundef nonnull align 1 dereferenceable(1) %this1) #3
  %0 = getelementptr inbounds i8, ptr %this1, i64 8
  call void @_ZNSt15_Rb_tree_headerC2Ev(ptr noundef nonnull align 8 dereferenceable(40) %0) #3
  ret void
}

; Function Attrs: mustprogress nounwind uwtable
define linkonce_odr hidden void @_ZNSt8_Rb_treeIN7Imf_3_24NameESt4pairIKS1_NS0_5SliceEESt10_Select1stIS5_ESt4lessIS1_ESaIS5_EEC2Ev(ptr noundef nonnull align 8 dereferenceable(48) %this) unnamed_addr #5 comdat align 2 {
entry:
  %this.addr = alloca ptr, align 8
  store ptr %this, ptr %this.addr, align 8
  %this1 = load ptr, ptr %this.addr, align 8
  %_M_impl = getelementptr inbounds %"class.std::_Rb_tree.1", ptr %this1, i32 0, i32 0
  call void @_ZNSt8_Rb_treeIN7Imf_3_24NameESt4pairIKS1_NS0_5SliceEESt10_Select1stIS5_ESt4lessIS1_ESaIS5_EE13_Rb_tree_implIS9_Lb1EEC2Ev(ptr noundef nonnull align 8 dereferenceable(48) %_M_impl) #3
  ret void
}

; Function Attrs: mustprogress nounwind uwtable
define linkonce_odr hidden void @_ZNSt3mapIN7Imf_3_24NameENS0_5SliceESt4lessIS1_ESaISt4pairIKS1_S2_EEEC2Ev(ptr noundef nonnull align 8 dereferenceable(48) %this) unnamed_addr #5 comdat align 2 {
entry:
  %this.addr = alloca ptr, align 8
  store ptr %this, ptr %this.addr, align 8
  %this1 = load ptr, ptr %this.addr, align 8
  %_M_t = getelementptr inbounds %"class.std::map.0", ptr %this1, i32 0, i32 0
  call void @_ZNSt8_Rb_treeIN7Imf_3_24NameESt4pairIKS1_NS0_5SliceEESt10_Select1stIS5_ESt4lessIS1_ESaIS5_EEC2Ev(ptr noundef nonnull align 8 dereferenceable(48) %_M_t) #3
  ret void
}

; Function Attrs: mustprogress nounwind uwtable
define linkonce_odr hidden void @_ZN7Imf_3_211FrameBufferC2Ev(ptr noundef nonnull align 8 dereferenceable(48) %this) unnamed_addr #5 comdat align 2 {
entry:
  %this.addr = alloca ptr, align 8
  store ptr %this, ptr %this.addr, align 8
  %this1 = load ptr, ptr %this.addr, align 8
  %_map = getelementptr inbounds %"class.Imf_3_2::FrameBuffer", ptr %this1, i32 0, i32 0
  call void @_ZNSt3mapIN7Imf_3_24NameENS0_5SliceESt4lessIS1_ESaISt4pairIKS1_S2_EEEC2Ev(ptr noundef nonnull align 8 dereferenceable(48) %_map) #3
  ret void
}

; Function Attrs: mustprogress uwtable
define noundef i32 @_ZNK7Imf_3_213RgbaInputFile8channelsEv(ptr noundef nonnull align 8 dereferenceable(64) %this) #4 align 2 {
entry:
  %this.addr = alloca ptr, align 8
  store ptr %this, ptr %this.addr, align 8
  %this1 = load ptr, ptr %this.addr, align 8
  %_inputPart = getelementptr inbounds %"class.Imf_3_2::RgbaInputFile", ptr %this1, i32 0, i32 2
  %0 = load ptr, ptr %_inputPart, align 8
  %call = call noundef nonnull align 8 dereferenceable(49) ptr @_ZNK7Imf_3_29InputPart6headerEv(ptr noundef nonnull align 8 dereferenceable(8) %0)
  %call2 = call noundef nonnull align 8 dereferenceable(48) ptr @_ZNK7Imf_3_26Header8channelsEv(ptr noundef nonnull align 8 dereferenceable(49) %call)
  %_channelNamePrefix = getelementptr inbounds %"class.Imf_3_2::RgbaInputFile", ptr %this1, i32 0, i32 4
  %call3 = call noundef i32 @_ZN7Imf_3_212_GLOBAL__N_112rgbaChannelsERKNS_11ChannelListERKNSt7__cxx1112basic_stringIcSt11char_traitsIcESaIcEEE(ptr noundef nonnull align 8 dereferenceable(48) %call2, ptr noundef nonnull align 8 dereferenceable(32) %_channelNamePrefix)
  ret i32 %call3
}

; Function Attrs: mustprogress uwtable
define void @_ZN7Imf_3_213RgbaInputFile15setPartAndLayerEiRKNSt7__cxx1112basic_stringIcSt11char_traitsIcESaIcEEE(ptr noundef nonnull align 8 dereferenceable(64) %this, i32 noundef %part, ptr noundef nonnull align 8 dereferenceable(32) %layerName) #4 align 2 personality ptr @__gxx_personality_v0 {
entry:
  %this.addr = alloca ptr, align 8
  %part.addr = alloca i32, align 4
  %layerName.addr = alloca ptr, align 8
  %exn.slot = alloca ptr, align 8
  %ehselector.slot = alloca i32, align 4
  %ref.tmp = alloca %"class.std::__cxx11::basic_string", align 8
  %rgbaChannels = alloca i32, align 4
  %fb = alloca %"class.Imf_3_2::FrameBuffer", align 8
  store ptr %this, ptr %this.addr, align 8
  store i32 %part, ptr %part.addr, align 4
  store ptr %layerName, ptr %layerName.addr, align 8
  %this1 = load ptr, ptr %this.addr, align 8
  %_fromYca = getelementptr inbounds %"class.Imf_3_2::RgbaInputFile", ptr %this1, i32 0, i32 3
  %0 = load ptr, ptr %_fromYca, align 8
  %isnull = icmp eq ptr %0, null
  br i1 %isnull, label %delete.end, label %delete.notnull

delete.notnull:                                   ; preds = %entry
  call void @_ZN7Imf_3_213RgbaInputFile7FromYcaD1Ev(ptr noundef nonnull align 8 dereferenceable(392) %0) #3
  call void @_ZdlPv(ptr noundef %0) #14
  br label %delete.end

delete.end:                                       ; preds = %delete.notnull, %entry
  %_fromYca2 = getelementptr inbounds %"class.Imf_3_2::RgbaInputFile", ptr %this1, i32 0, i32 3
  store ptr null, ptr %_fromYca2, align 8
  %_inputPart = getelementptr inbounds %"class.Imf_3_2::RgbaInputFile", ptr %this1, i32 0, i32 2
  %1 = load ptr, ptr %_inputPart, align 8
  %isnull3 = icmp eq ptr %1, null
  br i1 %isnull3, label %delete.end5, label %delete.notnull4

delete.notnull4:                                  ; preds = %delete.end
  call void @_ZdlPv(ptr noundef %1) #14
  br label %delete.end5

delete.end5:                                      ; preds = %delete.notnull4, %delete.end
  %_inputPart6 = getelementptr inbounds %"class.Imf_3_2::RgbaInputFile", ptr %this1, i32 0, i32 2
  store ptr null, ptr %_inputPart6, align 8
  %call = call noalias noundef nonnull ptr @_Znwm(i64 noundef 8) #13
  %_multiPartFile = getelementptr inbounds %"class.Imf_3_2::RgbaInputFile", ptr %this1, i32 0, i32 1
  %2 = load ptr, ptr %_multiPartFile, align 8
  %3 = load i32, ptr %part.addr, align 4
  invoke void @_ZN7Imf_3_29InputPartC1ERNS_18MultiPartInputFileEi(ptr noundef nonnull align 8 dereferenceable(8) %call, ptr noundef nonnull align 8 dereferenceable(16) %2, i32 noundef %3)
          to label %invoke.cont unwind label %lpad

invoke.cont:                                      ; preds = %delete.end5
  %_inputPart7 = getelementptr inbounds %"class.Imf_3_2::RgbaInputFile", ptr %this1, i32 0, i32 2
  store ptr %call, ptr %_inputPart7, align 8
  %4 = load ptr, ptr %layerName.addr, align 8
  %_inputPart8 = getelementptr inbounds %"class.Imf_3_2::RgbaInputFile", ptr %this1, i32 0, i32 2
  %5 = load ptr, ptr %_inputPart8, align 8
  %call9 = call noundef nonnull align 8 dereferenceable(49) ptr @_ZNK7Imf_3_29InputPart6headerEv(ptr noundef nonnull align 8 dereferenceable(8) %5)
  call void @_ZN7Imf_3_212_GLOBAL__N_119prefixFromLayerNameERKNSt7__cxx1112basic_stringIcSt11char_traitsIcESaIcEEERKNS_6HeaderE(ptr sret(%"class.std::__cxx11::basic_string") align 8 %ref.tmp, ptr noundef nonnull align 8 dereferenceable(32) %4, ptr noundef nonnull align 8 dereferenceable(49) %call9)
  %_channelNamePrefix = getelementptr inbounds %"class.Imf_3_2::RgbaInputFile", ptr %this1, i32 0, i32 4
  %call10 = call noundef nonnull align 8 dereferenceable(32) ptr @_ZNSt7__cxx1112basic_stringIcSt11char_traitsIcESaIcEEaSEOS4_(ptr noundef nonnull align 8 dereferenceable(32) %_channelNamePrefix, ptr noundef nonnull align 8 dereferenceable(32) %ref.tmp) #3
  call void @_ZNSt7__cxx1112basic_stringIcSt11char_traitsIcESaIcEED1Ev(ptr noundef nonnull align 8 dereferenceable(32) %ref.tmp) #3
  %call11 = call noundef i32 @_ZNK7Imf_3_213RgbaInputFile8channelsEv(ptr noundef nonnull align 8 dereferenceable(64) %this1)
  store i32 %call11, ptr %rgbaChannels, align 4
  %6 = load i32, ptr %rgbaChannels, align 4
  %and = and i32 %6, 32
  %tobool = icmp ne i32 %and, 0
  br i1 %tobool, label %if.then, label %if.end

if.then:                                          ; preds = %invoke.cont
  %call12 = call noalias noundef nonnull ptr @_Znwm(i64 noundef 392) #13
  %_inputPart13 = getelementptr inbounds %"class.Imf_3_2::RgbaInputFile", ptr %this1, i32 0, i32 2
  %7 = load ptr, ptr %_inputPart13, align 8
  %8 = load i32, ptr %rgbaChannels, align 4
  invoke void @_ZN7Imf_3_213RgbaInputFile7FromYcaC1ERNS_9InputPartENS_12RgbaChannelsE(ptr noundef nonnull align 8 dereferenceable(392) %call12, ptr noundef nonnull align 8 dereferenceable(8) %7, i32 noundef %8)
          to label %invoke.cont15 unwind label %lpad14

invoke.cont15:                                    ; preds = %if.then
  %_fromYca16 = getelementptr inbounds %"class.Imf_3_2::RgbaInputFile", ptr %this1, i32 0, i32 3
  store ptr %call12, ptr %_fromYca16, align 8
  br label %if.end

lpad:                                             ; preds = %delete.end5
  %9 = landingpad { ptr, i32 }
          cleanup
  %10 = extractvalue { ptr, i32 } %9, 0
  store ptr %10, ptr %exn.slot, align 8
  %11 = extractvalue { ptr, i32 } %9, 1
  store i32 %11, ptr %ehselector.slot, align 4
  call void @_ZdlPv(ptr noundef %call) #14
  br label %eh.resume

lpad14:                                           ; preds = %if.then
  %12 = landingpad { ptr, i32 }
          cleanup
  %13 = extractvalue { ptr, i32 } %12, 0
  store ptr %13, ptr %exn.slot, align 8
  %14 = extractvalue { ptr, i32 } %12, 1
  store i32 %14, ptr %ehselector.slot, align 4
  call void @_ZdlPv(ptr noundef %call12) #14
  br label %eh.resume

if.end:                                           ; preds = %invoke.cont15, %invoke.cont
  call void @_ZN7Imf_3_211FrameBufferC2Ev(ptr noundef nonnull align 8 dereferenceable(48) %fb) #3
  %_inputPart17 = getelementptr inbounds %"class.Imf_3_2::RgbaInputFile", ptr %this1, i32 0, i32 2
  %15 = load ptr, ptr %_inputPart17, align 8
  invoke void @_ZN7Imf_3_29InputPart14setFrameBufferERKNS_11FrameBufferE(ptr noundef nonnull align 8 dereferenceable(8) %15, ptr noundef nonnull align 8 dereferenceable(48) %fb)
          to label %invoke.cont19 unwind label %lpad18

invoke.cont19:                                    ; preds = %if.end
  call void @_ZN7Imf_3_211FrameBufferD2Ev(ptr noundef nonnull align 8 dereferenceable(48) %fb) #3
  ret void

lpad18:                                           ; preds = %if.end
  %16 = landingpad { ptr, i32 }
          cleanup
  %17 = extractvalue { ptr, i32 } %16, 0
  store ptr %17, ptr %exn.slot, align 8
  %18 = extractvalue { ptr, i32 } %16, 1
  store i32 %18, ptr %ehselector.slot, align 4
  call void @_ZN7Imf_3_211FrameBufferD2Ev(ptr noundef nonnull align 8 dereferenceable(48) %fb) #3
  br label %eh.resume

eh.resume:                                        ; preds = %lpad18, %lpad14, %lpad
  %exn = load ptr, ptr %exn.slot, align 8
  %sel = load i32, ptr %ehselector.slot, align 4
  %lpad.val = insertvalue { ptr, i32 } poison, ptr %exn, 0
  %lpad.val20 = insertvalue { ptr, i32 } %lpad.val, i32 %sel, 1
  resume { ptr, i32 } %lpad.val20
}