; Function Attrs: mustprogress uwtable
define void @_ZN7Imf_3_213RgbaInputFile15setPartAndLayerEiRKNSt7__cxx1112basic_stringIcSt11char_traitsIcESaIcEEE(ptr noundef nonnull align 8 dereferenceable(64) %this, i32 noundef %part, ptr noundef nonnull align 8 dereferenceable(32) %layerName) local_unnamed_addr #3 align 2 personality ptr @__gxx_personality_v0 {
entry:
  %ref.tmp = alloca %"class.std::__cxx11::basic_string", align 8
  %fb = alloca %"class.Imf_3_2::FrameBuffer", align 8
  %_fromYca = getelementptr inbounds i8, ptr %this, i64 24
  %0 = load ptr, ptr %_fromYca, align 8
  %isnull = icmp eq ptr %0, null
  br i1 %isnull, label %delete.end, label %delete.notnull

delete.notnull:                                   ; preds = %entry
  %_bufBase.i = getelementptr inbounds i8, ptr %0, i64 96
  %1 = load ptr, ptr %_bufBase.i, align 8
  %isnull.i = icmp eq ptr %1, null
  br i1 %isnull.i, label %delete.end.i, label %delete.notnull.i

delete.notnull.i:                                 ; preds = %delete.notnull
  tail call void @_ZdaPv(ptr noundef nonnull %1) #24
  br label %delete.end.i

delete.end.i:                                     ; preds = %delete.notnull.i, %delete.notnull
  %_tmpBuf.i = getelementptr inbounds i8, ptr %0, i64 360
  %2 = load ptr, ptr %_tmpBuf.i, align 8
  %isnull2.i = icmp eq ptr %2, null
  br i1 %isnull2.i, label %_ZN7Imf_3_213RgbaInputFile7FromYcaD2Ev.exit, label %delete.notnull3.i

delete.notnull3.i:                                ; preds = %delete.end.i
  tail call void @_ZdaPv(ptr noundef nonnull %2) #24
  br label %_ZN7Imf_3_213RgbaInputFile7FromYcaD2Ev.exit

_ZN7Imf_3_213RgbaInputFile7FromYcaD2Ev.exit:      ; preds = %delete.end.i, %delete.notnull3.i
  tail call void @_ZdlPv(ptr noundef nonnull %0) #24
  br label %delete.end

delete.end:                                       ; preds = %_ZN7Imf_3_213RgbaInputFile7FromYcaD2Ev.exit, %entry
  store ptr null, ptr %_fromYca, align 8
  %_inputPart = getelementptr inbounds i8, ptr %this, i64 16
  %3 = load ptr, ptr %_inputPart, align 8
  %isnull3 = icmp eq ptr %3, null
  br i1 %isnull3, label %delete.end5, label %delete.notnull4

delete.notnull4:                                  ; preds = %delete.end
  tail call void @_ZdlPv(ptr noundef nonnull %3) #24
  br label %delete.end5

delete.end5:                                      ; preds = %delete.notnull4, %delete.end
  store ptr null, ptr %_inputPart, align 8
  %call = tail call noalias noundef nonnull dereferenceable(8) ptr @_Znwm(i64 noundef 8) #23
  %_multiPartFile = getelementptr inbounds i8, ptr %this, i64 8
  %4 = load ptr, ptr %_multiPartFile, align 8
  invoke void @_ZN7Imf_3_29InputPartC1ERNS_18MultiPartInputFileEi(ptr noundef nonnull align 8 dereferenceable(8) %call, ptr noundef nonnull align 8 dereferenceable(16) %4, i32 noundef %part)
          to label %invoke.cont unwind label %lpad

invoke.cont:                                      ; preds = %delete.end5
  store ptr %call, ptr %_inputPart, align 8
  %call9 = tail call noundef nonnull align 8 dereferenceable(49) ptr @_ZNK7Imf_3_29InputPart6headerEv(ptr noundef nonnull align 8 dereferenceable(8) %call)
  call fastcc void @_ZN7Imf_3_212_GLOBAL__N_119prefixFromLayerNameERKNSt7__cxx1112basic_stringIcSt11char_traitsIcESaIcEEERKNS_6HeaderE(ptr noalias nonnull align 8 %ref.tmp, ptr noundef nonnull align 8 dereferenceable(32) %layerName, ptr noundef nonnull align 8 dereferenceable(49) %call9)
  %_channelNamePrefix = getelementptr inbounds i8, ptr %this, i64 32
  %call10 = call noundef nonnull align 8 dereferenceable(32) ptr @_ZNSt7__cxx1112basic_stringIcSt11char_traitsIcESaIcEEaSEOS4_(ptr noundef nonnull align 8 dereferenceable(32) %_channelNamePrefix, ptr noundef nonnull align 8 dereferenceable(32) %ref.tmp) #25
  call void @_ZNSt7__cxx1112basic_stringIcSt11char_traitsIcESaIcEED1Ev(ptr noundef nonnull align 8 dereferenceable(32) %ref.tmp) #25
  %5 = load ptr, ptr %_inputPart, align 8
  %call.i = call noundef nonnull align 8 dereferenceable(49) ptr @_ZNK7Imf_3_29InputPart6headerEv(ptr noundef nonnull align 8 dereferenceable(8) %5)
  %call2.i = call noundef nonnull align 8 dereferenceable(48) ptr @_ZNK7Imf_3_26Header8channelsEv(ptr noundef nonnull align 8 dereferenceable(49) %call.i)
  %call3.i = call fastcc noundef i32 @_ZN7Imf_3_212_GLOBAL__N_112rgbaChannelsERKNS_11ChannelListERKNSt7__cxx1112basic_stringIcSt11char_traitsIcESaIcEEE(ptr noundef nonnull align 8 dereferenceable(48) %call2.i, ptr noundef nonnull align 8 dereferenceable(32) %_channelNamePrefix), !range !15
  %tobool.not = icmp ult i32 %call3.i, 32
  br i1 %tobool.not, label %if.end, label %if.then

if.then:                                          ; preds = %invoke.cont
  %call12 = call noalias noundef nonnull dereferenceable(392) ptr @_Znwm(i64 noundef 392) #23
  %6 = load ptr, ptr %_inputPart, align 8
  invoke void @_ZN7Imf_3_213RgbaInputFile7FromYcaC2ERNS_9InputPartENS_12RgbaChannelsE(ptr noundef nonnull align 8 dereferenceable(392) %call12, ptr noundef nonnull align 8 dereferenceable(8) %6, i32 noundef %call3.i)
          to label %invoke.cont15 unwind label %lpad14

invoke.cont15:                                    ; preds = %if.then
  store ptr %call12, ptr %_fromYca, align 8
  br label %if.end

lpad:                                             ; preds = %delete.end5
  %7 = landingpad { ptr, i32 }
          cleanup
  tail call void @_ZdlPv(ptr noundef nonnull %call) #24
  br label %eh.resume

lpad14:                                           ; preds = %if.then
  %8 = landingpad { ptr, i32 }
          cleanup
  call void @_ZdlPv(ptr noundef nonnull %call12) #24
  br label %eh.resume

if.end:                                           ; preds = %invoke.cont15, %invoke.cont
  %9 = getelementptr inbounds i8, ptr %fb, i64 8
  store i32 0, ptr %9, align 8
  %_M_parent.i.i.i.i.i.i = getelementptr inbounds i8, ptr %fb, i64 16
  store ptr null, ptr %_M_parent.i.i.i.i.i.i, align 8
  %_M_left.i.i.i.i.i.i = getelementptr inbounds i8, ptr %fb, i64 24
  store ptr %9, ptr %_M_left.i.i.i.i.i.i, align 8
  %_M_right.i.i.i.i.i.i = getelementptr inbounds i8, ptr %fb, i64 32
  store ptr %9, ptr %_M_right.i.i.i.i.i.i, align 8
  %_M_node_count.i.i.i.i.i.i = getelementptr inbounds i8, ptr %fb, i64 40
  store i64 0, ptr %_M_node_count.i.i.i.i.i.i, align 8
  %10 = load ptr, ptr %_inputPart, align 8
  invoke void @_ZN7Imf_3_29InputPart14setFrameBufferERKNS_11FrameBufferE(ptr noundef nonnull align 8 dereferenceable(8) %10, ptr noundef nonnull align 8 dereferenceable(48) %fb)
          to label %invoke.cont19 unwind label %lpad18

invoke.cont19:                                    ; preds = %if.end
  %11 = load ptr, ptr %_M_parent.i.i.i.i.i.i, align 8
  invoke void @_ZNSt8_Rb_treeIN7Imf_3_24NameESt4pairIKS1_NS0_5SliceEESt10_Select1stIS5_ESt4lessIS1_ESaIS5_EE8_M_eraseEPSt13_Rb_tree_nodeIS5_E(ptr noundef nonnull align 8 dereferenceable(48) %fb, ptr noundef %11)
          to label %_ZN7Imf_3_211FrameBufferD2Ev.exit unwind label %terminate.lpad.i.i.i

terminate.lpad.i.i.i:                             ; preds = %invoke.cont19
  %12 = landingpad { ptr, i32 }
          catch ptr null
  %13 = extractvalue { ptr, i32 } %12, 0
  call void @__clang_call_terminate(ptr %13) #26
  unreachable

_ZN7Imf_3_211FrameBufferD2Ev.exit:                ; preds = %invoke.cont19
  ret void

lpad18:                                           ; preds = %if.end
  %14 = landingpad { ptr, i32 }
          cleanup
  call void @_ZN7Imf_3_211FrameBufferD2Ev(ptr noundef nonnull align 8 dereferenceable(48) %fb) #25
  br label %eh.resume

eh.resume:                                        ; preds = %lpad18, %lpad14, %lpad
  %.pn = phi { ptr, i32 } [ %14, %lpad18 ], [ %8, %lpad14 ], [ %7, %lpad ]
  resume { ptr, i32 } %.pn
}